; Function Attrs: nounwind uwtable
define noundef ptr @PQconnectdbParams(ptr noundef readonly captures(none) %0, ptr noundef readonly captures(none) %1, i32 noundef %2) local_unnamed_addr #0 {
  %4 = tail call ptr @PQconnectStartParams(ptr noundef %0, ptr noundef %1, i32 noundef %2)
  %.not = icmp eq ptr %4, null
  br i1 %.not, label %10, label %5

5:                                                ; preds = %3
  %6 = getelementptr inbounds nuw i8, ptr %4, i64 416
  %7 = load i32, ptr %6, align 8
  %.not6 = icmp eq i32 %7, 1
  br i1 %.not6, label %10, label %8

8:                                                ; preds = %5
  %9 = tail call i32 @pqConnectDBComplete(ptr noundef nonnull %4)
  br label %10

10:                                               ; preds = %8, %5, %3
  ret ptr %4
}